target datalayout = "e-m:e-p270:32:32-p271:32:32-p272:64:64-i64:64-i128:128-f80:128-n8:16:32:64-S128"
target triple = "x86_64-pc-linux-gnu"

%struct._lv_global_t = type { i8, i8, %struct.lv_ll_t, ptr, ptr, %struct.lv_ll_t, i8, i32, i32, ptr, %struct.lv_ll_t, ptr, %struct.lv_ll_t, ptr, ptr, i32, ptr, i8, i32, i32, ptr, i32, %struct.lv_timer_state_t, %struct.lv_anim_state_t, %struct.lv_tick_state_t, %struct._lv_draw_buf_handlers_t, %struct._lv_draw_buf_handlers_t, %struct._lv_draw_buf_handlers_t, %struct.lv_ll_t, ptr, ptr, %struct.lv_draw_global_info_t, [4 x %struct.lv_draw_sw_mask_radius_circle_dsc_t], ptr, ptr, ptr, %struct.lv_tlsf_state_t, %struct.lv_ll_t, ptr, ptr, %struct.lv_style_t, i64, ptr, i32, ptr }
%struct.lv_timer_state_t = type { %struct.lv_ll_t, i8, i8, i8, i8, i32, i8, i32, i32, i32, i32, ptr, ptr }
%struct.lv_anim_state_t = type { i8, i8, ptr, %struct.lv_ll_t }
%struct.lv_tick_state_t = type { i32, i8, ptr, ptr }
%struct._lv_draw_buf_handlers_t = type { ptr, ptr, ptr, ptr, ptr, ptr }
%struct.lv_draw_global_info_t = type { ptr, i32, i32, i32, i32, i8 }
%struct.lv_draw_sw_mask_radius_circle_dsc_t = type { ptr, ptr, ptr, ptr, i32, i32, i32 }
%struct.lv_tlsf_state_t = type { ptr, i64, i64, %struct.lv_ll_t }
%struct.lv_ll_t = type { i32, ptr, ptr }
%struct.lv_style_t = type { ptr, i32, i8 }
%struct._lv_display_t = type { i32, i32, i32, i32, i32, i32, i32, ptr, ptr, ptr, ptr, ptr, i32, i32, i8, i32, i16, i32, [32 x %struct.lv_area_t], [32 x i8], i32, i32, %struct.lv_ll_t, %struct._lv_draw_buf_t, %struct._lv_draw_buf_t, ptr, ptr, ptr, ptr, ptr, ptr, ptr, ptr, ptr, ptr, i32, i8, ptr, ptr, %struct.lv_event_list_t, i8, ptr, ptr, i32, %struct.lv_area_t }
%struct._lv_draw_buf_t = type { %struct.lv_image_header_t, i32, ptr, ptr, ptr }
%struct.lv_image_header_t = type <{ i64, i32 }>
%struct.lv_event_list_t = type { %struct._lv_array_t, i8 }
%struct._lv_array_t = type { ptr, i32, i32, i32, i8 }
%struct.lv_area_t = type { i32, i32, i32, i32 }

@lv_global = external global %struct._lv_global_t, align 8

; Function Attrs: nounwind uwtable
define ptr @lv_display_get_default() #0 {
  %1 = load ptr, ptr getelementptr inbounds nuw (%struct._lv_global_t, ptr @lv_global, i32 0, i32 4), align 8, !tbaa !35
  ret ptr %1
}

; Function Attrs: nounwind uwtable
define i32 @lv_display_get_horizontal_resolution(ptr noundef %0) #0 {
  %2 = alloca i32, align 4
  %3 = alloca ptr, align 8
  store ptr %0, ptr %3, align 8, !tbaa !7
  %4 = load ptr, ptr %3, align 8, !tbaa !7
  %5 = icmp eq ptr %4, null
  br i1 %5, label %6, label %8

6:                                                ; preds = %1
  %7 = call ptr @lv_display_get_default()
  store ptr %7, ptr %3, align 8, !tbaa !7
  br label %8

8:                                                ; preds = %6, %1
  %9 = load ptr, ptr %3, align 8, !tbaa !7
  %10 = icmp eq ptr %9, null
  br i1 %10, label %11, label %12

11:                                               ; preds = %8
  store i32 0, ptr %2, align 4
  br label %26

12:                                               ; preds = %8
  %13 = load ptr, ptr %3, align 8, !tbaa !7
  %14 = getelementptr inbounds nuw %struct._lv_display_t, ptr %13, i32 0, i32 40
  %15 = load i8, ptr %14, align 8
  %16 = and i8 %15, 7
  %17 = zext i8 %16 to i32
  switch i32 %17, label %22 [
    i32 1, label %18
    i32 3, label %18
  ]

18:                                               ; preds = %12, %12
  %19 = load ptr, ptr %3, align 8, !tbaa !7
  %20 = getelementptr inbounds nuw %struct._lv_display_t, ptr %19, i32 0, i32 1
  %21 = load i32, ptr %20, align 4, !tbaa !18
  store i32 %21, ptr %2, align 4
  br label %26

22:                                               ; preds = %12
  %23 = load ptr, ptr %3, align 8, !tbaa !7
  %24 = getelementptr inbounds nuw %struct._lv_display_t, ptr %23, i32 0, i32 0
  %25 = load i32, ptr %24, align 8, !tbaa !9
  store i32 %25, ptr %2, align 4
  br label %26

26:                                               ; preds = %22, %18, %11
  %27 = load i32, ptr %2, align 4
  ret i32 %27
}