; Function Attrs: mustprogress nofree norecurse nosync nounwind willreturn memory(read, inaccessiblemem: none) uwtable
define i32 @lv_display_get_horizontal_resolution(ptr noundef readonly %0) local_unnamed_addr #6 {
  %2 = icmp eq ptr %0, null
  br i1 %2, label %3, label %.thread

3:                                                ; preds = %1
  %4 = load ptr, ptr getelementptr inbounds nuw (i8, ptr @lv_global, i64 40), align 8, !tbaa !33
  %5 = icmp eq ptr %4, null
  br i1 %5, label %14, label %.thread

.thread:                                          ; preds = %1, %3
  %.08 = phi ptr [ %4, %3 ], [ %0, %1 ]
  %6 = getelementptr inbounds nuw i8, ptr %.08, i64 888
  %7 = load i8, ptr %6, align 8
  %8 = and i8 %7, 7
  switch i8 %8, label %12 [
    i8 1, label %9
    i8 3, label %9
  ]

9:                                                ; preds = %.thread, %.thread
  %10 = getelementptr inbounds nuw i8, ptr %.08, i64 4
  %11 = load i32, ptr %10, align 4, !tbaa !16
  br label %14

12:                                               ; preds = %.thread
  %13 = load i32, ptr %.08, align 8, !tbaa !3
  br label %14

14:                                               ; preds = %3, %12, %9
  %.05 = phi i32 [ %13, %12 ], [ %11, %9 ], [ 0, %3 ]
  ret i32 %.05
}